; Function Attrs: mustprogress uwtable
define void @_ZN3zmq7dgram_tC2EPNS_5ctx_tEji(ptr noundef nonnull align 8 dereferenceable(1848) %this, ptr noundef %parent_, i32 noundef %tid_, i32 noundef %sid_) unnamed_addr #0 align 2 {
entry:
  tail call void @_ZN3zmq13socket_base_tC2EPNS_5ctx_tEjib(ptr noundef nonnull align 8 dereferenceable(1825) %this, ptr noundef %parent_, i32 noundef %tid_, i32 noundef %sid_, i1 noundef zeroext false)
  store ptr getelementptr inbounds ({ [47 x ptr], [4 x ptr], [7 x ptr], [8 x ptr] }, ptr @_ZTVN3zmq7dgram_tE, i64 0, i32 0, i64 2), ptr %this, align 8
  %add.ptr = getelementptr inbounds i8, ptr %this, i64 1448
  store ptr getelementptr inbounds ({ [47 x ptr], [4 x ptr], [7 x ptr], [8 x ptr] }, ptr @_ZTVN3zmq7dgram_tE, i64 0, i32 1, i64 2), ptr %add.ptr, align 8
  %add.ptr2 = getelementptr inbounds i8, ptr %this, i64 1464
  store ptr getelementptr inbounds ({ [47 x ptr], [4 x ptr], [7 x ptr], [8 x ptr] }, ptr @_ZTVN3zmq7dgram_tE, i64 0, i32 2, i64 2), ptr %add.ptr2, align 8
  %add.ptr3 = getelementptr inbounds i8, ptr %this, i64 1472
  store ptr getelementptr inbounds ({ [47 x ptr], [4 x ptr], [7 x ptr], [8 x ptr] }, ptr @_ZTVN3zmq7dgram_tE, i64 0, i32 3, i64 2), ptr %add.ptr3, align 8
  %_pipe = getelementptr inbounds i8, ptr %this, i64 1832
  store ptr null, ptr %_pipe, align 8
  %_more_out = getelementptr inbounds i8, ptr %this, i64 1840
  store i8 0, ptr %_more_out, align 8
  %type = getelementptr inbounds i8, ptr %this, i64 332
  store i8 18, ptr %type, align 4
  %raw_socket = getelementptr inbounds i8, ptr %this, i64 395
  store i8 1, ptr %raw_socket, align 1
  ret void
}